target datalayout = "e-m:e-p270:32:32-p271:32:32-p272:64:64-i64:64-i128:128-f80:128-n8:16:32:64-S128"
target triple = "x86_64-pc-linux-gnu"

%"class.fmt::v11::basic_string_view" = type { ptr, i64 }
%"class.std::chrono::time_point" = type { %"class.std::chrono::duration" }
%"class.std::chrono::duration" = type { i64 }
%"struct.spdlog::details::log_msg" = type { %"class.fmt::v11::basic_string_view", i32, %"class.std::chrono::time_point", i64, i64, i64, %"struct.spdlog::source_loc", %"class.fmt::v11::basic_string_view" }
%"struct.spdlog::source_loc" = type { ptr, i32, ptr }

@_ZZN6spdlog7details2os9thread_idEvE3tid = internal thread_local global i64 0, align 8
@_ZGVZN6spdlog7details2os9thread_idEvE3tid = internal thread_local global i8 0, align 1

; Function Attrs: mustprogress nounwind uwtable
define dso_local noundef i64 @_ZN6spdlog7details2os10_thread_idEv() #0 {
  %1 = call i64 (i64, ...) @syscall(i64 noundef 186) #13
  ret i64 %1
}

; Function Attrs: mustprogress nounwind uwtable
define dso_local noundef i64 @_ZN6spdlog7details2os9thread_idEv() #0 {
  %1 = load i8, ptr @_ZGVZN6spdlog7details2os9thread_idEvE3tid, align 1
  %2 = icmp eq i8 %1, 0
  br i1 %2, label %3, label %7, !prof !80

3:                                                ; preds = %0
  %4 = call noundef i64 @_ZN6spdlog7details2os10_thread_idEv() #13
  %5 = call align 8 ptr @llvm.threadlocal.address.p0(ptr align 8 @_ZZN6spdlog7details2os9thread_idEvE3tid)
  store i64 %4, ptr %5, align 8, !tbaa !28
  %6 = call ptr @llvm.invariant.start.p0(i64 8, ptr @_ZZN6spdlog7details2os9thread_idEvE3tid)
  store i8 1, ptr @_ZGVZN6spdlog7details2os9thread_idEvE3tid, align 1
  br label %7

7:                                                ; preds = %3, %0
  %8 = call align 8 ptr @llvm.threadlocal.address.p0(ptr align 8 @_ZZN6spdlog7details2os9thread_idEvE3tid)
  %9 = load i64, ptr %8, align 8, !tbaa !28
  ret i64 %9
}

; Function Attrs: mustprogress nounwind uwtable
define dso_local void @_ZN6spdlog7details7log_msgC2ENSt6chrono10time_pointINS2_3_V212system_clockENS2_8durationIlSt5ratioILl1ELl1000000000EEEEEENS_10source_locEN3fmt3v1117basic_string_viewIcEENS_5level10level_enumESF_(ptr noundef nonnull align 8 dereferenceable(96) %0, i64 %1, ptr noundef byval(%"struct.spdlog::source_loc") align 8 %2, ptr %3, i64 %4, i32 noundef %5, ptr noundef byval(%"class.fmt::v11::basic_string_view") align 8 %6) unnamed_addr #0 align 2 {
  %8 = alloca %"class.std::chrono::time_point", align 8
  %9 = alloca %"class.fmt::v11::basic_string_view", align 8
  %10 = alloca ptr, align 8
  %11 = alloca i32, align 4
  %12 = getelementptr inbounds nuw %"class.std::chrono::time_point", ptr %8, i32 0, i32 0
  %13 = getelementptr inbounds nuw %"class.std::chrono::duration", ptr %12, i32 0, i32 0
  store i64 %1, ptr %13, align 8
  %14 = getelementptr inbounds nuw { ptr, i64 }, ptr %9, i32 0, i32 0
  store ptr %3, ptr %14, align 8
  %15 = getelementptr inbounds nuw { ptr, i64 }, ptr %9, i32 0, i32 1
  store i64 %4, ptr %15, align 8
  store ptr %0, ptr %10, align 8, !tbaa !58
  store i32 %5, ptr %11, align 4, !tbaa !4
  %16 = load ptr, ptr %10, align 8
  %17 = getelementptr inbounds nuw %"struct.spdlog::details::log_msg", ptr %16, i32 0, i32 0
  call void @llvm.memcpy.p0.p0.i64(ptr align 8 %17, ptr align 8 %9, i64 16, i1 false), !tbaa.struct !68
  %18 = getelementptr inbounds nuw %"struct.spdlog::details::log_msg", ptr %16, i32 0, i32 1
  %19 = load i32, ptr %11, align 4, !tbaa !4
  store i32 %19, ptr %18, align 8, !tbaa !69
  %20 = getelementptr inbounds nuw %"struct.spdlog::details::log_msg", ptr %16, i32 0, i32 2
  call void @llvm.memcpy.p0.p0.i64(ptr align 8 %20, ptr align 8 %8, i64 8, i1 false), !tbaa.struct !75
  %21 = getelementptr inbounds nuw %"struct.spdlog::details::log_msg", ptr %16, i32 0, i32 3
  %22 = call noundef i64 @_ZN6spdlog7details2os9thread_idEv() #13
  store i64 %22, ptr %21, align 8, !tbaa !76
  %23 = getelementptr inbounds nuw %"struct.spdlog::details::log_msg", ptr %16, i32 0, i32 4
  store i64 0, ptr %23, align 8, !tbaa !77
  %24 = getelementptr inbounds nuw %"struct.spdlog::details::log_msg", ptr %16, i32 0, i32 5
  store i64 0, ptr %24, align 8, !tbaa !78
  %25 = getelementptr inbounds nuw %"struct.spdlog::details::log_msg", ptr %16, i32 0, i32 6
  call void @llvm.memcpy.p0.p0.i64(ptr align 8 %25, ptr align 8 %2, i64 24, i1 false), !tbaa.struct !79
  %26 = getelementptr inbounds nuw %"struct.spdlog::details::log_msg", ptr %16, i32 0, i32 7
  call void @llvm.memcpy.p0.p0.i64(ptr align 8 %26, ptr align 8 %6, i64 16, i1 false), !tbaa.struct !68
  ret void
}

; Function Attrs: mustprogress nounwind uwtable
define dso_local i64 @_ZN6spdlog7details2os3nowEv() #0 {
  %1 = alloca %"class.std::chrono::time_point", align 8
  %2 = call i64 @_ZNSt6chrono3_V212system_clock3nowEv() #13
  %3 = getelementptr inbounds nuw %"class.std::chrono::time_point", ptr %1, i32 0, i32 0
  %4 = getelementptr inbounds nuw %"class.std::chrono::duration", ptr %3, i32 0, i32 0
  store i64 %2, ptr %4, align 8
  %5 = getelementptr inbounds nuw %"class.std::chrono::time_point", ptr %1, i32 0, i32 0
  %6 = getelementptr inbounds nuw %"class.std::chrono::duration", ptr %5, i32 0, i32 0
  %7 = load i64, ptr %6, align 8
  ret i64 %7
}

; Function Attrs: mustprogress nounwind uwtable
define dso_local void @_ZN6spdlog7details7log_msgC2ENS_10source_locEN3fmt3v1117basic_string_viewIcEENS_5level10level_enumES6_(ptr noundef nonnull align 8 dereferenceable(96) %0, ptr noundef byval(%"struct.spdlog::source_loc") align 8 %1, ptr %2, i64 %3, i32 noundef %4, ptr %5, i64 %6) unnamed_addr #0 align 2 {
  %8 = alloca %"class.fmt::v11::basic_string_view", align 8
  %9 = alloca %"class.fmt::v11::basic_string_view", align 8
  %10 = alloca ptr, align 8
  %11 = alloca i32, align 4
  %12 = alloca %"class.std::chrono::time_point", align 8
  %13 = alloca %"struct.spdlog::source_loc", align 8
  %14 = alloca %"class.fmt::v11::basic_string_view", align 8
  %15 = alloca %"class.fmt::v11::basic_string_view", align 8
  %16 = getelementptr inbounds nuw { ptr, i64 }, ptr %8, i32 0, i32 0
  store ptr %2, ptr %16, align 8
  %17 = getelementptr inbounds nuw { ptr, i64 }, ptr %8, i32 0, i32 1
  store i64 %3, ptr %17, align 8
  %18 = getelementptr inbounds nuw { ptr, i64 }, ptr %9, i32 0, i32 0
  store ptr %5, ptr %18, align 8
  %19 = getelementptr inbounds nuw { ptr, i64 }, ptr %9, i32 0, i32 1
  store i64 %6, ptr %19, align 8
  store ptr %0, ptr %10, align 8, !tbaa !58
  store i32 %4, ptr %11, align 4, !tbaa !4
  %20 = load ptr, ptr %10, align 8
  %21 = call i64 @_ZN6spdlog7details2os3nowEv() #13
  %22 = getelementptr inbounds nuw %"class.std::chrono::time_point", ptr %12, i32 0, i32 0
  %23 = getelementptr inbounds nuw %"class.std::chrono::duration", ptr %22, i32 0, i32 0
  store i64 %21, ptr %23, align 8
  call void @llvm.memcpy.p0.p0.i64(ptr align 8 %13, ptr align 8 %1, i64 24, i1 false), !tbaa.struct !79
  call void @llvm.memcpy.p0.p0.i64(ptr align 8 %14, ptr align 8 %8, i64 16, i1 false), !tbaa.struct !68
  %24 = load i32, ptr %11, align 4, !tbaa !4
  call void @llvm.memcpy.p0.p0.i64(ptr align 8 %15, ptr align 8 %9, i64 16, i1 false), !tbaa.struct !68
  %25 = getelementptr inbounds nuw %"class.std::chrono::time_point", ptr %12, i32 0, i32 0
  %26 = getelementptr inbounds nuw %"class.std::chrono::duration", ptr %25, i32 0, i32 0
  %27 = load i64, ptr %26, align 8
  %28 = getelementptr inbounds nuw { ptr, i64 }, ptr %14, i32 0, i32 0
  %29 = load ptr, ptr %28, align 8
  %30 = getelementptr inbounds nuw { ptr, i64 }, ptr %14, i32 0, i32 1
  %31 = load i64, ptr %30, align 8
  call void @_ZN6spdlog7details7log_msgC2ENSt6chrono10time_pointINS2_3_V212system_clockENS2_8durationIlSt5ratioILl1ELl1000000000EEEEEENS_10source_locEN3fmt3v1117basic_string_viewIcEENS_5level10level_enumESF_(ptr noundef nonnull align 8 dereferenceable(96) %20, i64 %27, ptr noundef byval(%"struct.spdlog::source_loc") align 8 %13, ptr %29, i64 %31, i32 noundef %24, ptr noundef byval(%"class.fmt::v11::basic_string_view") align 8 %15)
  ret void
}