; Function Attrs: mustprogress nounwind uwtable
define dso_local void @_ZN6spdlog7details7log_msgC2ENS_10source_locEN3fmt3v1117basic_string_viewIcEENS_5level10level_enumES6_(ptr noundef nonnull writeonly align 8 captures(none) dereferenceable(96) initializes((0, 20), (24, 96)) %0, ptr noundef readonly byval(%"struct.spdlog::source_loc") align 8 captures(none) %1, ptr %2, i64 %3, i32 noundef %4, ptr %5, i64 %6) unnamed_addr #1 align 2 {
  %8 = tail call i64 @_ZNSt6chrono3_V212system_clock3nowEv() #37
  store ptr %2, ptr %0, align 8, !tbaa !4
  %.sroa.2.0..sroa_idx.i = getelementptr inbounds nuw i8, ptr %0, i64 8
  store i64 %3, ptr %.sroa.2.0..sroa_idx.i, align 8, !tbaa !26
  %9 = getelementptr inbounds nuw i8, ptr %0, i64 16
  store i32 %4, ptr %9, align 8, !tbaa !43
  %10 = getelementptr inbounds nuw i8, ptr %0, i64 24
  store i64 %8, ptr %10, align 8, !tbaa !26
  %.b.i.i = load i1, ptr @_ZGVZN6spdlog7details2os9thread_idEvE3tid, align 1
  br i1 %.b.i.i, label %._crit_edge.i.i, label %11, !prof !62

._crit_edge.i.i:                                  ; preds = %7
  %.pre.i.i = tail call align 8 ptr @llvm.threadlocal.address.p0(ptr align 8 @_ZZN6spdlog7details2os9thread_idEvE3tid)
  %.pre.i = load i64, ptr %.pre.i.i, align 8, !tbaa !26
  br label %_ZN6spdlog7details7log_msgC2ENSt6chrono10time_pointINS2_3_V212system_clockENS2_8durationIlSt5ratioILl1ELl1000000000EEEEEENS_10source_locEN3fmt3v1117basic_string_viewIcEENS_5level10level_enumESF_.exit

11:                                               ; preds = %7
  %12 = tail call noundef i64 (i64, ...) @syscall(i64 noundef 186) #37
  %13 = tail call align 8 ptr @llvm.threadlocal.address.p0(ptr align 8 @_ZZN6spdlog7details2os9thread_idEvE3tid)
  store i64 %12, ptr %13, align 8, !tbaa !26
  %14 = tail call ptr @llvm.invariant.start.p0(i64 8, ptr nonnull @_ZZN6spdlog7details2os9thread_idEvE3tid)
  store i1 true, ptr @_ZGVZN6spdlog7details2os9thread_idEvE3tid, align 1
  br label %_ZN6spdlog7details7log_msgC2ENSt6chrono10time_pointINS2_3_V212system_clockENS2_8durationIlSt5ratioILl1ELl1000000000EEEEEENS_10source_locEN3fmt3v1117basic_string_viewIcEENS_5level10level_enumESF_.exit

_ZN6spdlog7details7log_msgC2ENSt6chrono10time_pointINS2_3_V212system_clockENS2_8durationIlSt5ratioILl1ELl1000000000EEEEEENS_10source_locEN3fmt3v1117basic_string_viewIcEENS_5level10level_enumESF_.exit: ; preds = %._crit_edge.i.i, %11
  %15 = phi i64 [ %.pre.i, %._crit_edge.i.i ], [ %12, %11 ]
  %16 = getelementptr inbounds nuw i8, ptr %0, i64 32
  store i64 %15, ptr %16, align 8, !tbaa !63
  %17 = getelementptr inbounds nuw i8, ptr %0, i64 40
  %18 = getelementptr inbounds nuw i8, ptr %0, i64 56
  tail call void @llvm.memset.p0.i64(ptr noundef nonnull align 8 dereferenceable(16) %17, i8 0, i64 16, i1 false)
  call void @llvm.memcpy.p0.p0.i64(ptr noundef nonnull align 8 dereferenceable(24) %18, ptr noundef nonnull align 8 dereferenceable(24) %1, i64 24, i1 false)
  %19 = getelementptr inbounds nuw i8, ptr %0, i64 80
  store ptr %5, ptr %19, align 8, !tbaa !4
  %.sroa.4.0..sroa_idx = getelementptr inbounds nuw i8, ptr %0, i64 88
  store i64 %6, ptr %.sroa.4.0..sroa_idx, align 8, !tbaa !26
  ret void
}